target datalayout = "e-m:e-p270:32:32-p271:32:32-p272:64:64-i64:64-i128:128-f80:128-n8:16:32:64-S128"
target triple = "x86_64-pc-linux-gnu"

; Function Attrs: nounwind uwtable
define dso_local i32 @keyspaceEventsStringToFlags(ptr noundef %0) #0 {
  %2 = alloca i32, align 4
  %3 = alloca ptr, align 8
  %4 = alloca ptr, align 8
  %5 = alloca i32, align 4
  %6 = alloca i32, align 4
  %7 = alloca i32, align 4
  store ptr %0, ptr %3, align 8, !tbaa !5
  call void @llvm.lifetime.start.p0(i64 8, ptr %4) #4
  %8 = load ptr, ptr %3, align 8, !tbaa !5
  store ptr %8, ptr %4, align 8, !tbaa !5
  call void @llvm.lifetime.start.p0(i64 4, ptr %5) #4
  call void @llvm.lifetime.start.p0(i64 4, ptr %6) #4
  store i32 0, ptr %6, align 4, !tbaa !10
  br label %9

9:                                                ; preds = %63, %1
  %10 = load ptr, ptr %4, align 8, !tbaa !5
  %11 = getelementptr inbounds nuw i8, ptr %10, i32 1
  store ptr %11, ptr %4, align 8, !tbaa !5
  %12 = load i8, ptr %10, align 1, !tbaa !12
  %13 = sext i8 %12 to i32
  store i32 %13, ptr %5, align 4, !tbaa !10
  %14 = icmp ne i32 %13, 0
  br i1 %14, label %15, label %64

15:                                               ; preds = %9
  %16 = load i32, ptr %5, align 4, !tbaa !10
  switch i32 %16, label %62 [
    i32 65, label %17
    i32 103, label %20
    i32 36, label %23
    i32 108, label %26
    i32 115, label %29
    i32 104, label %32
    i32 122, label %35
    i32 120, label %38
    i32 101, label %41
    i32 75, label %44
    i32 69, label %47
    i32 116, label %50
    i32 109, label %53
    i32 100, label %56
    i32 110, label %59
  ]

17:                                               ; preds = %15
  %18 = load i32, ptr %6, align 4, !tbaa !10
  %19 = or i32 %18, 10236
  store i32 %19, ptr %6, align 4, !tbaa !10
  br label %63

20:                                               ; preds = %15
  %21 = load i32, ptr %6, align 4, !tbaa !10
  %22 = or i32 %21, 4
  store i32 %22, ptr %6, align 4, !tbaa !10
  br label %63

23:                                               ; preds = %15
  %24 = load i32, ptr %6, align 4, !tbaa !10
  %25 = or i32 %24, 8
  store i32 %25, ptr %6, align 4, !tbaa !10
  br label %63

26:                                               ; preds = %15
  %27 = load i32, ptr %6, align 4, !tbaa !10
  %28 = or i32 %27, 16
  store i32 %28, ptr %6, align 4, !tbaa !10
  br label %63

29:                                               ; preds = %15
  %30 = load i32, ptr %6, align 4, !tbaa !10
  %31 = or i32 %30, 32
  store i32 %31, ptr %6, align 4, !tbaa !10
  br label %63

32:                                               ; preds = %15
  %33 = load i32, ptr %6, align 4, !tbaa !10
  %34 = or i32 %33, 64
  store i32 %34, ptr %6, align 4, !tbaa !10
  br label %63

35:                                               ; preds = %15
  %36 = load i32, ptr %6, align 4, !tbaa !10
  %37 = or i32 %36, 128
  store i32 %37, ptr %6, align 4, !tbaa !10
  br label %63

38:                                               ; preds = %15
  %39 = load i32, ptr %6, align 4, !tbaa !10
  %40 = or i32 %39, 256
  store i32 %40, ptr %6, align 4, !tbaa !10
  br label %63

41:                                               ; preds = %15
  %42 = load i32, ptr %6, align 4, !tbaa !10
  %43 = or i32 %42, 512
  store i32 %43, ptr %6, align 4, !tbaa !10
  br label %63

44:                                               ; preds = %15
  %45 = load i32, ptr %6, align 4, !tbaa !10
  %46 = or i32 %45, 1
  store i32 %46, ptr %6, align 4, !tbaa !10
  br label %63

47:                                               ; preds = %15
  %48 = load i32, ptr %6, align 4, !tbaa !10
  %49 = or i32 %48, 2
  store i32 %49, ptr %6, align 4, !tbaa !10
  br label %63

50:                                               ; preds = %15
  %51 = load i32, ptr %6, align 4, !tbaa !10
  %52 = or i32 %51, 1024
  store i32 %52, ptr %6, align 4, !tbaa !10
  br label %63

53:                                               ; preds = %15
  %54 = load i32, ptr %6, align 4, !tbaa !10
  %55 = or i32 %54, 2048
  store i32 %55, ptr %6, align 4, !tbaa !10
  br label %63

56:                                               ; preds = %15
  %57 = load i32, ptr %6, align 4, !tbaa !10
  %58 = or i32 %57, 8192
  store i32 %58, ptr %6, align 4, !tbaa !10
  br label %63

59:                                               ; preds = %15
  %60 = load i32, ptr %6, align 4, !tbaa !10
  %61 = or i32 %60, 16384
  store i32 %61, ptr %6, align 4, !tbaa !10
  br label %63

62:                                               ; preds = %15
  store i32 -1, ptr %2, align 4
  store i32 1, ptr %7, align 4
  br label %66

63:                                               ; preds = %59, %56, %53, %50, %47, %44, %41, %38, %35, %32, %29, %26, %23, %20, %17
  br label %9, !llvm.loop !13

64:                                               ; preds = %9
  %65 = load i32, ptr %6, align 4, !tbaa !10
  store i32 %65, ptr %2, align 4
  store i32 1, ptr %7, align 4
  br label %66

66:                                               ; preds = %64, %62
  call void @llvm.lifetime.end.p0(i64 4, ptr %6) #4
  call void @llvm.lifetime.end.p0(i64 4, ptr %5) #4
  call void @llvm.lifetime.end.p0(i64 8, ptr %4) #4
  %67 = load i32, ptr %2, align 4
  ret i32 %67
}