; Function Attrs: nofree norecurse nosync nounwind memory(argmem: read) uwtable
define dso_local range(i32 -1, 32768) i32 @keyspaceEventsStringToFlags(ptr noundef readonly captures(none) %0) local_unnamed_addr #0 {
  br label %2

2:                                                ; preds = %19, %1
  %.020 = phi ptr [ %0, %1 ], [ %3, %19 ]
  %.0 = phi i32 [ 0, %1 ], [ %20, %19 ]
  %3 = getelementptr inbounds nuw i8, ptr %.020, i64 1
  %4 = load i8, ptr %.020, align 1, !tbaa !5
  switch i8 %4, label %.loopexit.loopexit [
    i8 0, label %.loopexit
    i8 65, label %19
    i8 103, label %5
    i8 36, label %6
    i8 108, label %7
    i8 115, label %8
    i8 104, label %9
    i8 122, label %10
    i8 120, label %11
    i8 101, label %12
    i8 75, label %13
    i8 69, label %14
    i8 116, label %15
    i8 109, label %16
    i8 100, label %17
    i8 110, label %18
  ]

5:                                                ; preds = %2
  br label %19

6:                                                ; preds = %2
  br label %19

7:                                                ; preds = %2
  br label %19

8:                                                ; preds = %2
  br label %19

9:                                                ; preds = %2
  br label %19

10:                                               ; preds = %2
  br label %19

11:                                               ; preds = %2
  br label %19

12:                                               ; preds = %2
  br label %19

13:                                               ; preds = %2
  br label %19

14:                                               ; preds = %2
  br label %19

15:                                               ; preds = %2
  br label %19

16:                                               ; preds = %2
  br label %19

17:                                               ; preds = %2
  br label %19

18:                                               ; preds = %2
  br label %19

19:                                               ; preds = %2, %18, %17, %16, %15, %14, %13, %12, %11, %10, %9, %8, %7, %6, %5
  %.sink = phi i32 [ 16384, %18 ], [ 8192, %17 ], [ 2048, %16 ], [ 1024, %15 ], [ 2, %14 ], [ 1, %13 ], [ 512, %12 ], [ 256, %11 ], [ 128, %10 ], [ 64, %9 ], [ 32, %8 ], [ 16, %7 ], [ 8, %6 ], [ 4, %5 ], [ 10236, %2 ]
  %20 = or i32 %.0, %.sink
  br label %2, !llvm.loop !8

.loopexit.loopexit:                               ; preds = %2
  br label %.loopexit

.loopexit:                                        ; preds = %2, %.loopexit.loopexit
  %.019 = phi i32 [ -1, %.loopexit.loopexit ], [ %.0, %2 ]
  ret i32 %.019
}